target datalayout = "e-m:e-p270:32:32-p271:32:32-p272:64:64-i64:64-i128:128-f80:128-n8:16:32:64-S128"
target triple = "x86_64-pc-linux-gnu"

%struct.CvMatND = type { i32, i32, ptr, i32, %union.anon, [32 x %struct.anon] }
%union.anon = type { ptr }
%struct.anon = type { i32, i32 }
%"class.cv::Mat" = type { i32, i32, i32, i32, ptr, ptr, ptr, ptr, ptr, ptr, %"struct.cv::MatSize", %"struct.cv::MatStep" }
%"struct.cv::MatSize" = type { ptr }
%"struct.cv::MatStep" = type { ptr, [2 x i64] }

; Function Attrs: inlinehint mustprogress nounwind uwtable
define linkonce_odr hidden noundef nonnull align 8 dereferenceable(8) ptr @_ZNK2cv7MatStepixEi(ptr noundef nonnull align 8 dereferenceable(24) %0, i32 noundef %1) #2 comdat align 2 {
  %3 = alloca ptr, align 8
  %4 = alloca i32, align 4
  store ptr %0, ptr %3, align 8, !tbaa !32
  store i32 %1, ptr %4, align 4, !tbaa !19
  %5 = load ptr, ptr %3, align 8
  %6 = getelementptr inbounds nuw %"struct.cv::MatStep", ptr %5, i32 0, i32 0
  %7 = load ptr, ptr %6, align 8, !tbaa !34
  %8 = load i32, ptr %4, align 4, !tbaa !19
  %9 = sext i32 %8 to i64
  %10 = getelementptr inbounds i64, ptr %7, i64 %9
  ret ptr %10
}

; Function Attrs: inlinehint mustprogress nounwind uwtable
define linkonce_odr hidden noundef i32 @_ZNK2cv3Mat4typeEv(ptr noundef nonnull align 8 dereferenceable(96) %0) #2 comdat align 2 {
  %2 = alloca ptr, align 8
  store ptr %0, ptr %2, align 8, !tbaa !3
  %3 = load ptr, ptr %2, align 8
  %4 = getelementptr inbounds nuw %"class.cv::Mat", ptr %3, i32 0, i32 0
  %5 = load i32, ptr %4, align 8, !tbaa !26
  %6 = and i32 %5, 4095
  ret i32 %6
}

; Function Attrs: inlinehint mustprogress nounwind uwtable
define linkonce_odr hidden noundef ptr @_ZNK2cv7MatSizecvPKiEv(ptr noundef nonnull align 8 dereferenceable(8) %0) #2 comdat align 2 {
  %2 = alloca ptr, align 8
  store ptr %0, ptr %2, align 8, !tbaa !29
  %3 = load ptr, ptr %2, align 8
  %4 = getelementptr inbounds nuw %"struct.cv::MatSize", ptr %3, i32 0, i32 0
  %5 = load ptr, ptr %4, align 8, !tbaa !31
  ret ptr %5
}

; Function Attrs: mustprogress uwtable
define void @_Z7cvMatNDRKN2cv3MatE(ptr dead_on_unwind noalias writable sret(%struct.CvMatND) align 8 %0, ptr noundef nonnull align 8 dereferenceable(96) %1) #0 {
  %3 = alloca ptr, align 8
  %4 = alloca i32, align 4
  %5 = alloca i32, align 4
  store ptr %1, ptr %3, align 8, !tbaa !3
  %6 = load ptr, ptr %3, align 8, !tbaa !3
  %7 = getelementptr inbounds nuw %"class.cv::Mat", ptr %6, i32 0, i32 1
  %8 = load i32, ptr %7, align 4, !tbaa !8
  %9 = load ptr, ptr %3, align 8, !tbaa !3
  %10 = getelementptr inbounds nuw %"class.cv::Mat", ptr %9, i32 0, i32 10
  %11 = call noundef ptr @_ZNK2cv7MatSizecvPKiEv(ptr noundef nonnull align 8 dereferenceable(8) %10) #18
  %12 = load ptr, ptr %3, align 8, !tbaa !3
  %13 = call noundef i32 @_ZNK2cv3Mat4typeEv(ptr noundef nonnull align 8 dereferenceable(96) %12)
  %14 = load ptr, ptr %3, align 8, !tbaa !3
  %15 = getelementptr inbounds nuw %"class.cv::Mat", ptr %14, i32 0, i32 4
  %16 = load ptr, ptr %15, align 8, !tbaa !18
  %17 = call ptr @cvInitMatNDHeader(ptr noundef %0, i32 noundef %8, ptr noundef %11, i32 noundef %13, ptr noundef %16)
  call void @llvm.lifetime.start.p0(i64 4, ptr %4) #18
  call void @llvm.lifetime.start.p0(i64 4, ptr %5) #18
  %18 = load ptr, ptr %3, align 8, !tbaa !3
  %19 = getelementptr inbounds nuw %"class.cv::Mat", ptr %18, i32 0, i32 1
  %20 = load i32, ptr %19, align 4, !tbaa !8
  store i32 %20, ptr %5, align 4, !tbaa !19
  store i32 0, ptr %4, align 4, !tbaa !19
  br label %21

21:                                               ; preds = %37, %2
  %22 = load i32, ptr %4, align 4, !tbaa !19
  %23 = load i32, ptr %5, align 4, !tbaa !19
  %24 = icmp slt i32 %22, %23
  br i1 %24, label %25, label %40

25:                                               ; preds = %21
  %26 = load ptr, ptr %3, align 8, !tbaa !3
  %27 = getelementptr inbounds nuw %"class.cv::Mat", ptr %26, i32 0, i32 11
  %28 = load i32, ptr %4, align 4, !tbaa !19
  %29 = call noundef nonnull align 8 dereferenceable(8) ptr @_ZNK2cv7MatStepixEi(ptr noundef nonnull align 8 dereferenceable(24) %27, i32 noundef %28) #18
  %30 = load i64, ptr %29, align 8, !tbaa !20
  %31 = trunc i64 %30 to i32
  %32 = getelementptr inbounds nuw %struct.CvMatND, ptr %0, i32 0, i32 5
  %33 = load i32, ptr %4, align 4, !tbaa !19
  %34 = sext i32 %33 to i64
  %35 = getelementptr inbounds [32 x %struct.anon], ptr %32, i64 0, i64 %34
  %36 = getelementptr inbounds nuw %struct.anon, ptr %35, i32 0, i32 1
  store i32 %31, ptr %36, align 4, !tbaa !22
  br label %37

37:                                               ; preds = %25
  %38 = load i32, ptr %4, align 4, !tbaa !19
  %39 = add nsw i32 %38, 1
  store i32 %39, ptr %4, align 4, !tbaa !19
  br label %21, !llvm.loop !24

40:                                               ; preds = %21
  %41 = load ptr, ptr %3, align 8, !tbaa !3
  %42 = getelementptr inbounds nuw %"class.cv::Mat", ptr %41, i32 0, i32 0
  %43 = load i32, ptr %42, align 8, !tbaa !26
  %44 = and i32 %43, 16384
  %45 = getelementptr inbounds nuw %struct.CvMatND, ptr %0, i32 0, i32 0
  %46 = load i32, ptr %45, align 8, !tbaa !27
  %47 = or i32 %46, %44
  store i32 %47, ptr %45, align 8, !tbaa !27
  call void @llvm.lifetime.end.p0(i64 4, ptr %5) #18
  call void @llvm.lifetime.end.p0(i64 4, ptr %4) #18
  ret void
}