; Function Attrs: mustprogress uwtable
define void @_Z7cvMatNDRKN2cv3MatE(ptr dead_on_unwind noalias writable sret(%struct.CvMatND) align 8 %0, ptr noundef nonnull readonly align 8 captures(none) dereferenceable(96) %1) local_unnamed_addr #0 {
  %3 = getelementptr inbounds nuw i8, ptr %1, i64 4
  %4 = load i32, ptr %3, align 4, !tbaa !3
  %5 = getelementptr inbounds nuw i8, ptr %1, i64 64
  %6 = load ptr, ptr %5, align 8, !tbaa !16
  %7 = load i32, ptr %1, align 8, !tbaa !17
  %8 = and i32 %7, 4095
  %9 = getelementptr inbounds nuw i8, ptr %1, i64 16
  %10 = load ptr, ptr %9, align 8, !tbaa !18
  %11 = tail call ptr @cvInitMatNDHeader(ptr noundef %0, i32 noundef %4, ptr noundef %6, i32 noundef %8, ptr noundef %10)
  %12 = load i32, ptr %3, align 4, !tbaa !3
  %13 = icmp sgt i32 %12, 0
  br i1 %13, label %.lr.ph, label %._crit_edge

.lr.ph:                                           ; preds = %2
  %14 = getelementptr inbounds nuw i8, ptr %1, i64 72
  %15 = load ptr, ptr %14, align 8, !tbaa !19
  %16 = getelementptr inbounds nuw i8, ptr %0, i64 36
  %wide.trip.count = zext nneg i32 %12 to i64
  br label %17

17:                                               ; preds = %.lr.ph, %17
  %indvars.iv = phi i64 [ 0, %.lr.ph ], [ %indvars.iv.next, %17 ]
  %18 = getelementptr inbounds nuw i64, ptr %15, i64 %indvars.iv
  %19 = load i64, ptr %18, align 8, !tbaa !20
  %20 = trunc i64 %19 to i32
  %.idx = shl nuw nsw i64 %indvars.iv, 3
  %21 = getelementptr i8, ptr %16, i64 %.idx
  store i32 %20, ptr %21, align 4, !tbaa !22
  %indvars.iv.next = add nuw nsw i64 %indvars.iv, 1
  %exitcond.not = icmp eq i64 %indvars.iv.next, %wide.trip.count
  br i1 %exitcond.not, label %._crit_edge, label %17, !llvm.loop !24

._crit_edge:                                      ; preds = %17, %2
  %22 = load i32, ptr %1, align 8, !tbaa !17
  %23 = and i32 %22, 16384
  %24 = load i32, ptr %0, align 8, !tbaa !26
  %25 = or i32 %24, %23
  store i32 %25, ptr %0, align 8, !tbaa !26
  ret void
}